(dp1
S'k'
I15
sS'bVals'
p2
(lp3
cnumpy.core.multiarray
scalar
p4
(cnumpy
dtype
p5
(S'f8'
I0
I1
tRp6
(I3
S'<'
NNNI-1
I-1
I0
tbS'\x14_\x008\x07\xf9\xd9?'
tRp7
ag4
(g6
S'\x14_\x008\x07\xf9\xd9?'
tRp8
ag4
(g6
S'\x14_\x008\x07\xf9\xd9?'
tRp9
ag4
(g6
S'\x14_\x008\x07\xf9\xd9?'
tRp10
ag4
(g6
S'\x14_\x008\x07\xf9\xd9?'
tRp11
acnumpy.core.multiarray
_reconstruct
p12
(cnumpy
ndarray
p13
(I0
tS'b'
tRp14
(I1
(I1
tg6
I00
S'\x14_\x008\x07\xf9\xd9?'
tbag14
ag12
(g13
(I0
tS'b'
tRp15
(I1
(I1
I1
tg6
I00
S'\x82\x12~kV<\xc3?'
tbag15
ag15
ag15
ag15
ag12
(g13
(I0
tS'b'
tRp16
(I1
(I1
I1
tg6
I00
S'\xd8>\xae\xdf\xde\xf6_?'
tbag16
ag16
ag16
ag16
ag16
ag16
ag16
ag12
(g13
(I0
tS'b'
tRp17
(I1
(I1
I1
tg6
I00
S'|\xf0\xffc\xee\xd4I?'
tbag17
ag17
ag17
ag17
ag17
ag17
ag17
ag17
ag17
ag17
ag17
ag17
ag17
ag17
ag17
ag17
ag17
ag17
ag17
asS'seed'
p18
I1010
sS't'
F2733.8215041160583
sS'init_random'
p19
I5
s.