(dp1
S'k'
I15
sS'bVals'
p2
(lp3
cnumpy.core.multiarray
scalar
p4
(cnumpy
dtype
p5
(S'f8'
I0
I1
tRp6
(I3
S'<'
NNNI-1
I-1
I0
tbS'\xcct\x97T\xbb\xfe\xf5?'
tRp7
ag4
(g6
S'\xcct\x97T\xbb\xfe\xf5?'
tRp8
ag4
(g6
S'\xcct\x97T\xbb\xfe\xf5?'
tRp9
ag4
(g6
S'\xcct\x97T\xbb\xfe\xf5?'
tRp10
ag4
(g6
S'\xcct\x97T\xbb\xfe\xf5?'
tRp11
acnumpy.core.multiarray
_reconstruct
p12
(cnumpy
ndarray
p13
(I0
tS'b'
tRp14
(I1
(I1
I1
tg6
I00
S'\x10\xb8l\xe2\t\x89\xce?'
tbag12
(g13
(I0
tS'b'
tRp15
(I1
(I1
I1
tg6
I00
S'0/U\xd2\x81\xf4\x84?'
tbag15
ag15
ag15
ag15
ag15
ag12
(g13
(I0
tS'b'
tRp16
(I1
(I1
I1
tg6
I00
S'`.K]\x1f_U?'
tbag16
ag16
ag16
ag16
ag16
ag16
ag16
ag16
ag16
ag16
ag16
ag16
ag16
ag12
(g13
(I0
tS'b'
tRp17
(I1
(I1
I1
tg6
I00
S'|\xf0\xffc\xee\xd4I?'
tbag17
ag17
ag17
ag17
ag17
ag17
ag17
ag17
ag17
ag12
(g13
(I0
tS'b'
tRp18
(I1
(I1
I1
tg6
I00
S'\xe8L\x02\x99T\xd8\xf0>'
tbag18
ag18
ag18
asS'seed'
p19
I1012
sS't'
F6506.1944270133972
sS'init_random'
p20
I5
s.