(dp1
S'k'
I20
sS'bVals'
p2
(lp3
cnumpy.core.multiarray
scalar
p4
(cnumpy
dtype
p5
(S'f8'
I0
I1
tRp6
(I3
S'<'
NNNI-1
I-1
I0
tbS'\xd6\t\xc6\xb8s\xff\xde\xbf'
tRp7
ag4
(g6
S'\xd6\t\xc6\xb8s\xff\xde\xbf'
tRp8
ag4
(g6
S'\xd6\t\xc6\xb8s\xff\xde\xbf'
tRp9
ag4
(g6
S'\xd6\t\xc6\xb8s\xff\xde\xbf'
tRp10
ag4
(g6
S'\xd6\t\xc6\xb8s\xff\xde\xbf'
tRp11
acnumpy.core.multiarray
_reconstruct
p12
(cnumpy
ndarray
p13
(I0
tS'b'
tRp14
(I1
(I1
tg6
I00
S'\xd6\t\xc6\xb8s\xff\xde\xbf'
tbag14
ag14
ag14
ag14
ag14
ag14
ag14
ag14
ag14
ag14
ag14
ag14
ag14
ag14
ag14
ag14
ag14
ag14
ag14
ag14
ag14
ag14
ag14
ag14
ag14
ag14
ag14
ag14
ag14
ag14
ag14
ag14
ag14
ag14
asS'seed'
p15
I1001
sS't'
F858.35711216926575
sS'init_random'
p16
I5
s.