(dp1
S'k'
I20
sS'bVals'
p2
(lp3
cnumpy.core.multiarray
scalar
p4
(cnumpy
dtype
p5
(S'f8'
I0
I1
tRp6
(I3
S'<'
NNNI-1
I-1
I0
tbS'o\xb7>\xdema\xe1?'
tRp7
ag4
(g6
S'o\xb7>\xdema\xe1?'
tRp8
ag4
(g6
S'o\xb7>\xdema\xe1?'
tRp9
ag4
(g6
S'o\xb7>\xdema\xe1?'
tRp10
ag4
(g6
S'o\xb7>\xdema\xe1?'
tRp11
acnumpy.core.multiarray
_reconstruct
p12
(cnumpy
ndarray
p13
(I0
tS'b'
tRp14
(I1
(I1
tg6
I00
S'o\xb7>\xdema\xe1?'
tbag12
(g13
(I0
tS'b'
tRp15
(I1
(I1
I1
tg6
I00
S'\x84\x0e\xb7\xe4\xab\xb1\xcb?'
tbag15
ag15
ag15
ag15
ag15
ag15
ag15
ag12
(g13
(I0
tS'b'
tRp16
(I1
(I1
I1
tg6
I00
S'H/U\xd2\x81\xf4\x84?'
tbag16
ag16
ag16
ag16
ag12
(g13
(I0
tS'b'
tRp17
(I1
(I1
I1
tg6
I00
S'\xc8-K]\x1f_U?'
tbag17
ag17
ag17
ag17
ag17
ag17
ag17
ag12
(g13
(I0
tS'b'
tRp18
(I1
(I1
I1
tg6
I00
S'h\xf1\xffc\xee\xd4I?'
tbag18
ag18
ag18
ag18
ag18
ag18
ag18
ag18
ag18
ag18
ag18
ag18
asS'seed'
p19
I1003
sS't'
F863.35768699645996
sS'init_random'
p20
I5
s.