(dp1
S'k'
I20
sS'bVals'
p2
(lp3
cnumpy.core.multiarray
scalar
p4
(cnumpy
dtype
p5
(S'f8'
I0
I1
tRp6
(I3
S'<'
NNNI-1
I-1
I0
tbS'\x08\xdc\xa4qYm\xe7?'
tRp7
ag4
(g6
S'\x08\xdc\xa4qYm\xe7?'
tRp8
ag4
(g6
S'\x08\xdc\xa4qYm\xe7?'
tRp9
ag4
(g6
S'\x08\xdc\xa4qYm\xe7?'
tRp10
ag4
(g6
S'\x08\xdc\xa4qYm\xe7?'
tRp11
acnumpy.core.multiarray
_reconstruct
p12
(cnumpy
ndarray
p13
(I0
tS'b'
tRp14
(I1
(I1
tg6
I00
S'\x08\xdc\xa4qYm\xe7?'
tbag12
(g13
(I0
tS'b'
tRp15
(I1
(I1
I1
tg6
I00
S'`.K]\x1f_U?'
tbag15
ag15
ag15
ag15
ag15
ag15
ag15
ag15
ag15
ag15
ag15
ag15
ag15
ag15
ag15
ag15
ag15
ag15
ag15
ag15
ag15
ag15
ag12
(g13
(I0
tS'b'
tRp16
(I1
(I1
I1
tg6
I00
S'@\xb20\xcc\xf3V:?'
tbag16
ag16
ag16
ag16
ag16
ag16
ag16
ag16
ag16
ag16
asS'seed'
p17
I1000
sS't'
F859.62286996841431
sS'init_random'
p18
I5
s.