(dp1
S'k'
I30
sS'bVals'
p2
(lp3
cnumpy.core.multiarray
scalar
p4
(cnumpy
dtype
p5
(S'f8'
I0
I1
tRp6
(I3
S'<'
NNNI-1
I-1
I0
tbS'\xfa-\xf8\x10T\x91\xd6?'
tRp7
ag4
(g6
S'\xfa-\xf8\x10T\x91\xd6?'
tRp8
ag4
(g6
S'\xfa-\xf8\x10T\x91\xd6?'
tRp9
ag4
(g6
S'\xfa-\xf8\x10T\x91\xd6?'
tRp10
ag4
(g6
S'\xfa-\xf8\x10T\x91\xd6?'
tRp11
ag4
(g6
S'\xfa-\xf8\x10T\x91\xd6?'
tRp12
acnumpy.core.multiarray
_reconstruct
p13
(cnumpy
ndarray
p14
(I0
tS'b'
tRp15
(I1
(I1
tg6
I00
S'\xfa-\xf8\x10T\x91\xd6?'
tbag15
ag15
ag13
(g14
(I0
tS'b'
tRp16
(I1
(I1
I1
tg6
I00
S'\x8c\xb4\xca\x85\xa6\x05\xb5?'
tbag13
(g14
(I0
tS'b'
tRp17
(I1
(I1
I1
tg6
I00
S'\xc0\xbdA\xb9\xfa\x0e\xb1?'
tbag17
ag13
(g14
(I0
tS'b'
tRp18
(I1
(I1
I1
tg6
I00
S'\x18#\x12\xca\xebE\x90?'
tbag18
ag18
ag18
ag18
ag18
ag18
ag18
ag18
ag13
(g14
(I0
tS'b'
tRp19
(I1
(I1
I1
tg6
I00
S'\x84\xfd\x12\x9c\xb9\x84\x88?'
tbag19
ag13
(g14
(I0
tS'b'
tRp20
(I1
(I1
I1
tg6
I00
S'\xe8L\x02\x99T\xd8\xf0>'
tbag20
ag20
ag20
ag20
ag20
ag20
ag20
ag20
ag20
ag20
ag20
ag20
ag20
ag20
ag20
ag20
ag20
asS'seed'
p21
I1014
sS't'
F1364.7992618083954
sS'init_random'
p22
I6
s.