(dp1
S'k'
I30
sS'bVals'
p2
(lp3
cnumpy.core.multiarray
scalar
p4
(cnumpy
dtype
p5
(S'f8'
I0
I1
tRp6
(I3
S'<'
NNNI-1
I-1
I0
tbS'\xfbg\xe7{a\x89\xf7?'
tRp7
ag4
(g6
S'\xfbg\xe7{a\x89\xf7?'
tRp8
ag4
(g6
S'\xfbg\xe7{a\x89\xf7?'
tRp9
ag4
(g6
S'\xfbg\xe7{a\x89\xf7?'
tRp10
ag4
(g6
S'\xfbg\xe7{a\x89\xf7?'
tRp11
ag4
(g6
S'\xfbg\xe7{a\x89\xf7?'
tRp12
acnumpy.core.multiarray
_reconstruct
p13
(cnumpy
ndarray
p14
(I0
tS'b'
tRp15
(I1
(I1
I1
tg6
I00
S'\xf0\xd1\x0fm\x8e\xf4"?'
tbag15
ag15
ag15
ag15
ag15
ag15
ag15
ag15
ag15
ag15
ag15
ag15
ag15
ag15
ag15
ag15
ag15
ag15
ag15
ag15
ag15
ag15
ag15
ag15
ag15
ag15
ag15
ag15
ag15
ag15
ag15
ag15
ag15
ag15
asS'seed'
p16
I1043
sS't'
F1453.2563679218292
sS'init_random'
p17
I6
s.