(dp1
S'k'
I30
sS'bVals'
p2
(lp3
cnumpy.core.multiarray
scalar
p4
(cnumpy
dtype
p5
(S'f8'
I0
I1
tRp6
(I3
S'<'
NNNI-1
I-1
I0
tbS'\x9b\xab\x1e\x17\xbe%\xe9?'
tRp7
ag4
(g6
S'\x9b\xab\x1e\x17\xbe%\xe9?'
tRp8
ag4
(g6
S'\x9b\xab\x1e\x17\xbe%\xe9?'
tRp9
ag4
(g6
S'\x9b\xab\x1e\x17\xbe%\xe9?'
tRp10
ag4
(g6
S'\x9b\xab\x1e\x17\xbe%\xe9?'
tRp11
acnumpy.core.multiarray
_reconstruct
p12
(cnumpy
ndarray
p13
(I0
tS'b'
tRp14
(I1
(I1
I1
tg6
I00
S'\x8c\xb4\xca\x85\xa6\x05\xb5?'
tbag14
ag14
ag14
ag14
ag14
ag14
ag14
ag14
ag12
(g13
(I0
tS'b'
tRp15
(I1
(I1
I1
tg6
I00
S'H/U\xd2\x81\xf4\x84?'
tbag15
ag12
(g13
(I0
tS'b'
tRp16
(I1
(I1
I1
tg6
I00
S'\x10\xc2\x04\xaa\xf1\x03x?'
tbag16
ag16
ag16
ag16
ag16
ag16
ag16
ag16
ag16
ag12
(g13
(I0
tS'b'
tRp17
(I1
(I1
I1
tg6
I00
S'\xe8L\x02\x99T\xd8\xf0>'
tbag17
ag17
ag17
ag17
ag17
ag17
ag17
ag17
ag17
ag17
ag17
ag17
ag17
asS'seed'
p18
I1008
sS't'
F2298.0892541408539
sS'init_random'
p19
I5
s.