(dp1
S'k'
I30
sS'bVals'
p2
(lp3
cnumpy.core.multiarray
scalar
p4
(cnumpy
dtype
p5
(S'f8'
I0
I1
tRp6
(I3
S'<'
NNNI-1
I-1
I0
tbS'<\xfb)T\xc3L\x02@'
tRp7
ag4
(g6
S'<\xfb)T\xc3L\x02@'
tRp8
ag4
(g6
S'<\xfb)T\xc3L\x02@'
tRp9
ag4
(g6
S'<\xfb)T\xc3L\x02@'
tRp10
ag4
(g6
S'<\xfb)T\xc3L\x02@'
tRp11
acnumpy.core.multiarray
_reconstruct
p12
(cnumpy
ndarray
p13
(I0
tS'b'
tRp14
(I1
(I1
I1
tg6
I00
S'\xc8-K]\x1f_U?'
tbag14
ag14
ag14
ag14
ag14
ag14
ag14
ag14
ag14
ag14
ag14
ag14
ag14
ag14
ag14
ag14
ag14
ag14
ag14
ag14
ag14
ag12
(g13
(I0
tS'b'
tRp15
(I1
(I1
I1
tg6
I00
S'\x8c\xb30\xcc\xf3V:?'
tbag15
ag15
ag15
ag15
ag15
ag15
ag15
ag15
ag15
ag15
ag15
ag15
asS'seed'
p16
I1005
sS't'
F2283.9124047756195
sS'init_random'
p17
I5
s.