(dp1
S'k'
I30
sS'bVals'
p2
(lp3
cnumpy.core.multiarray
scalar
p4
(cnumpy
dtype
p5
(S'f8'
I0
I1
tRp6
(I3
S'<'
NNNI-1
I-1
I0
tbS'#Gd^\xb1\xf2\xe6?'
tRp7
ag4
(g6
S'#Gd^\xb1\xf2\xe6?'
tRp8
ag4
(g6
S'#Gd^\xb1\xf2\xe6?'
tRp9
ag4
(g6
S'#Gd^\xb1\xf2\xe6?'
tRp10
ag4
(g6
S'#Gd^\xb1\xf2\xe6?'
tRp11
ag4
(g6
S'#Gd^\xb1\xf2\xe6?'
tRp12
acnumpy.core.multiarray
_reconstruct
p13
(cnumpy
ndarray
p14
(I0
tS'b'
tRp15
(I1
(I1
tg6
I00
S'#Gd^\xb1\xf2\xe6?'
tbag15
ag13
(g14
(I0
tS'b'
tRp16
(I1
(I1
I1
tg6
I00
S'\xa0\x01\xec-\x98\xcc\xc7?'
tbag16
ag13
(g14
(I0
tS'b'
tRp17
(I1
(I1
I1
tg6
I00
S'0\xe6&\xb1\xbef\xa3?'
tbag17
ag17
ag17
ag17
ag17
ag17
ag13
(g14
(I0
tS'b'
tRp18
(I1
(I1
I1
tg6
I00
S'|\xd3\x0fm\x8e\xf4"?'
tbag18
ag18
ag18
ag18
ag18
ag18
ag18
ag18
ag18
ag18
ag18
ag18
ag18
ag18
ag18
ag18
ag18
ag18
ag18
ag18
ag18
ag18
ag18
asS'seed'
p19
I1022
sS't'
F1406.8616600036621
sS'init_random'
p20
I6
s.