(dp1
S'k'
I30
sS'bVals'
p2
(lp3
cnumpy.core.multiarray
scalar
p4
(cnumpy
dtype
p5
(S'f8'
I0
I1
tRp6
(I3
S'<'
NNNI-1
I-1
I0
tbS'H\xf0\xa8\x8f\x18\x04\xef?'
tRp7
ag4
(g6
S'H\xf0\xa8\x8f\x18\x04\xef?'
tRp8
ag4
(g6
S'H\xf0\xa8\x8f\x18\x04\xef?'
tRp9
ag4
(g6
S'H\xf0\xa8\x8f\x18\x04\xef?'
tRp10
ag4
(g6
S'H\xf0\xa8\x8f\x18\x04\xef?'
tRp11
ag4
(g6
S'H\xf0\xa8\x8f\x18\x04\xef?'
tRp12
acnumpy.core.multiarray
_reconstruct
p13
(cnumpy
ndarray
p14
(I0
tS'b'
tRp15
(I1
(I1
I1
tg6
I00
S'\x9beC\x00\xc9\x82\xec?'
tbag15
ag15
ag13
(g14
(I0
tS'b'
tRp16
(I1
(I1
I1
tg6
I00
S'1\xea\x97\xb4\xad\xdd\xe6?'
tbag16
ag16
ag13
(g14
(I0
tS'b'
tRp17
(I1
(I1
I1
tg6
I00
S'\x0c\xbe\xd2\xab;\xf7\xb7?'
tbag17
ag13
(g14
(I0
tS'b'
tRp18
(I1
(I1
I1
tg6
I00
S'\xdc\tz\xf5^a\x8c?'
tbag18
ag18
ag18
ag18
ag18
ag18
ag13
(g14
(I0
tS'b'
tRp19
(I1
(I1
I1
tg6
I00
S'\x8c\xb30\xcc\xf3V:?'
tbag19
ag19
ag19
ag19
ag19
ag19
ag19
ag19
ag19
ag13
(g14
(I0
tS'b'
tRp20
(I1
(I1
I1
tg6
I00
S'@\xb20\xcc\xf3V:?'
tbag20
ag20
ag20
ag20
ag20
ag20
ag20
ag20
ag20
asS'seed'
p21
I1000
sS't'
F1320.9657139778137
sS'init_random'
p22
I6
s.