(dp1
S'k'
I30
sS'bVals'
p2
(lp3
cnumpy.core.multiarray
scalar
p4
(cnumpy
dtype
p5
(S'f8'
I0
I1
tRp6
(I3
S'<'
NNNI-1
I-1
I0
tbS'\x14_\x008\x07\xf9\xd9?'
tRp7
ag4
(g6
S'\x14_\x008\x07\xf9\xd9?'
tRp8
ag4
(g6
S'\x14_\x008\x07\xf9\xd9?'
tRp9
ag4
(g6
S'\x14_\x008\x07\xf9\xd9?'
tRp10
ag4
(g6
S'\x14_\x008\x07\xf9\xd9?'
tRp11
acnumpy.core.multiarray
_reconstruct
p12
(cnumpy
ndarray
p13
(I0
tS'b'
tRp14
(I1
(I1
tg6
I00
S'\x14_\x008\x07\xf9\xd9?'
tbag14
ag14
ag12
(g13
(I0
tS'b'
tRp15
(I1
(I1
I1
tg6
I00
S'\x04#\x12\xca\xebE\x90?'
tbag15
ag15
ag15
ag15
ag15
ag15
ag15
ag12
(g13
(I0
tS'b'
tRp16
(I1
(I1
I1
tg6
I00
S'\xe8L\x02\x99T\xd8\xf0>'
tbag16
ag16
ag16
ag16
ag16
ag16
ag16
ag16
ag16
ag16
ag16
ag16
ag16
ag16
ag16
ag16
ag16
ag16
ag16
ag16
ag16
ag16
ag16
asS'seed'
p17
I1010
sS't'
F20729.894107103348
sS'init_random'
p18
I5
s.