(dp1
S'k'
I30
sS'bVals'
p2
(lp3
cnumpy.core.multiarray
scalar
p4
(cnumpy
dtype
p5
(S'f8'
I0
I1
tRp6
(I3
S'<'
NNNI-1
I-1
I0
tbS'\x8d!\xf2d\x97a\xe6?'
tRp7
ag4
(g6
S'\x8d!\xf2d\x97a\xe6?'
tRp8
ag4
(g6
S'\x8d!\xf2d\x97a\xe6?'
tRp9
ag4
(g6
S'\x8d!\xf2d\x97a\xe6?'
tRp10
ag4
(g6
S'\x8d!\xf2d\x97a\xe6?'
tRp11
acnumpy.core.multiarray
_reconstruct
p12
(cnumpy
ndarray
p13
(I0
tS'b'
tRp14
(I1
(I1
tg6
I00
S'\x8d!\xf2d\x97a\xe6?'
tbag14
ag12
(g13
(I0
tS'b'
tRp15
(I1
(I1
I1
tg6
I00
S'\xbc\xbeN\x93\x9a3\xc1?'
tbag15
ag15
ag15
ag12
(g13
(I0
tS'b'
tRp16
(I1
(I1
I1
tg6
I00
S'\x18\xb3\x17y\xa3\x19\xa9?'
tbag12
(g13
(I0
tS'b'
tRp17
(I1
(I1
I1
tg6
I00
S'\x04o\xa1\xac\xd1\x82\x92?'
tbag17
ag17
ag17
ag12
(g13
(I0
tS'b'
tRp18
(I1
(I1
I1
tg6
I00
S'|c\x94w\x8ch}?'
tbag18
ag18
ag18
ag18
ag12
(g13
(I0
tS'b'
tRp19
(I1
(I1
I1
tg6
I00
S'$>\xae\xdf\xde\xf6_?'
tbag19
ag12
(g13
(I0
tS'b'
tRp20
(I1
(I1
I1
tg6
I00
S'\x8c\xb30\xcc\xf3V:?'
tbag20
ag20
ag20
ag20
ag20
ag20
ag20
ag20
ag20
ag20
ag20
ag20
ag20
ag20
ag20
ag12
(g13
(I0
tS'b'
tRp21
(I1
(I1
I1
tg6
I00
S'\xf0\xd1\x0fm\x8e\xf4"?'
tbasS'seed'
p22
I1009
sS't'
F2518.5278420448303
sS'init_random'
p23
I5
s.