(dp1
S'k'
I35
sS'bVals'
p2
(lp3
cnumpy.core.multiarray
scalar
p4
(cnumpy
dtype
p5
(S'f8'
I0
I1
tRp6
(I3
S'<'
NNNI-1
I-1
I0
tbS'\x8e\x89\x8b\xb4;\xc7\xc0?'
tRp7
ag4
(g6
S'\x8e\x89\x8b\xb4;\xc7\xc0?'
tRp8
ag4
(g6
S'\x8e\x89\x8b\xb4;\xc7\xc0?'
tRp9
ag4
(g6
S'\x8e\x89\x8b\xb4;\xc7\xc0?'
tRp10
ag4
(g6
S'\x8e\x89\x8b\xb4;\xc7\xc0?'
tRp11
ag4
(g6
S'\x8e\x89\x8b\xb4;\xc7\xc0?'
tRp12
acnumpy.core.multiarray
_reconstruct
p13
(cnumpy
ndarray
p14
(I0
tS'b'
tRp15
(I1
(I1
tg6
I00
S'\x8e\x89\x8b\xb4;\xc7\xc0?'
tbag15
ag15
ag15
ag15
ag15
ag15
ag13
(g14
(I0
tS'b'
tRp16
(I1
(I1
I1
tg6
I00
S'H/U\xd2\x81\xf4\x84?'
tbag16
ag16
ag16
ag16
ag16
ag16
ag16
ag13
(g14
(I0
tS'b'
tRp17
(I1
(I1
I1
tg6
I00
S'|\xf0\xffc\xee\xd4I?'
tbag17
ag17
ag17
ag17
ag17
ag17
ag17
ag17
ag17
ag17
ag17
ag17
ag17
ag17
ag17
ag13
(g14
(I0
tS'b'
tRp18
(I1
(I1
I1
tg6
I00
S'\xe8L\x02\x99T\xd8\xf0>'
tbag18
ag18
ag18
asS'seed'
p19
I1048
sS't'
F1270.0689718723297
sS'init_random'
p20
I6
s.