(dp1
S'k'
I35
sS'bVals'
p2
(lp3
cnumpy.core.multiarray
scalar
p4
(cnumpy
dtype
p5
(S'f8'
I0
I1
tRp6
(I3
S'<'
NNNI-1
I-1
I0
tbS'\xdc\xbf\x92E\xe4\xcd\xf0?'
tRp7
ag4
(g6
S'\xdc\xbf\x92E\xe4\xcd\xf0?'
tRp8
ag4
(g6
S'\xdc\xbf\x92E\xe4\xcd\xf0?'
tRp9
ag4
(g6
S'\xdc\xbf\x92E\xe4\xcd\xf0?'
tRp10
ag4
(g6
S'\xdc\xbf\x92E\xe4\xcd\xf0?'
tRp11
ag4
(g6
S'\xdc\xbf\x92E\xe4\xcd\xf0?'
tRp12
acnumpy.core.multiarray
_reconstruct
p13
(cnumpy
ndarray
p14
(I0
tS'b'
tRp15
(I1
(I1
I1
tg6
I00
S'\\\xc3:"\xc34\xda?'
tbag15
ag15
ag15
ag15
ag15
ag13
(g14
(I0
tS'b'
tRp16
(I1
(I1
I1
tg6
I00
S'\x94\x12~kV<\xc3?'
tbag16
ag13
(g14
(I0
tS'b'
tRp17
(I1
(I1
I1
tg6
I00
S'h\xdb\xa5z\x81\x88\xb9?'
tbag13
(g14
(I0
tS'b'
tRp18
(I1
(I1
I1
tg6
I00
S'\\c\xe4\x81\x0c\x12\xa0?'
tbag18
ag18
ag13
(g14
(I0
tS'b'
tRp19
(I1
(I1
I1
tg6
I00
S'Hc\x94w\x8ch}?'
tbag19
ag19
ag13
(g14
(I0
tS'b'
tRp20
(I1
(I1
I1
tg6
I00
S'\xd8>\xae\xdf\xde\xf6_?'
tbag20
ag13
(g14
(I0
tS'b'
tRp21
(I1
(I1
I1
tg6
I00
S'@\xb20\xcc\xf3V:?'
tbag21
ag21
ag21
ag21
ag21
ag21
ag21
ag21
ag21
ag13
(g14
(I0
tS'b'
tRp22
(I1
(I1
I1
tg6
I00
S'|\xd3\x0fm\x8e\xf4"?'
tbag22
ag22
ag22
ag22
ag22
ag22
ag22
asS'seed'
p23
I1004
sS't'
F1446.6740961074829
sS'init_random'
p24
I6
s.