(dp1
S'k'
I35
sS'bVals'
p2
(lp3
cnumpy.core.multiarray
scalar
p4
(cnumpy
dtype
p5
(S'f8'
I0
I1
tRp6
(I3
S'<'
NNNI-1
I-1
I0
tbS'\xb42\x00\x87\xd8q\xcf?'
tRp7
ag4
(g6
S'\xb42\x00\x87\xd8q\xcf?'
tRp8
ag4
(g6
S'\xb42\x00\x87\xd8q\xcf?'
tRp9
ag4
(g6
S'\xb42\x00\x87\xd8q\xcf?'
tRp10
ag4
(g6
S'\xb42\x00\x87\xd8q\xcf?'
tRp11
ag4
(g6
S'\xb42\x00\x87\xd8q\xcf?'
tRp12
acnumpy.core.multiarray
_reconstruct
p13
(cnumpy
ndarray
p14
(I0
tS'b'
tRp15
(I1
(I1
tg6
I00
S'\xb42\x00\x87\xd8q\xcf?'
tbag13
(g14
(I0
tS'b'
tRp16
(I1
(I1
I1
tg6
I00
S'\xac\xf48/\x0b/s?'
tbag16
ag16
ag16
ag16
ag16
ag16
ag16
ag16
ag16
ag13
(g14
(I0
tS'b'
tRp17
(I1
(I1
I1
tg6
I00
S'\xa0\x8d\xef\x00\xd5Zf?'
tbag17
ag17
ag17
ag17
ag13
(g14
(I0
tS'b'
tRp18
(I1
(I1
I1
tg6
I00
S'\xe8L\x02\x99T\xd8\xf0>'
tbag18
ag18
ag18
ag18
ag18
ag18
ag18
ag18
ag18
ag18
ag18
ag18
ag18
ag18
ag18
ag18
ag18
ag18
asS'seed'
p19
I1042
sS't'
F1513.0721859931946
sS'init_random'
p20
I6
s.