(dp1
S'k'
I40
sS'bVals'
p2
(lp3
cnumpy.core.multiarray
scalar
p4
(cnumpy
dtype
p5
(S'f8'
I0
I1
tRp6
(I3
S'<'
NNNI-1
I-1
I0
tbS'{I\xaa\xe3\\\x82\xf1?'
tRp7
ag4
(g6
S'{I\xaa\xe3\\\x82\xf1?'
tRp8
ag4
(g6
S'{I\xaa\xe3\\\x82\xf1?'
tRp9
ag4
(g6
S'{I\xaa\xe3\\\x82\xf1?'
tRp10
ag4
(g6
S'{I\xaa\xe3\\\x82\xf1?'
tRp11
ag4
(g6
S'{I\xaa\xe3\\\x82\xf1?'
tRp12
acnumpy.core.multiarray
_reconstruct
p13
(cnumpy
ndarray
p14
(I0
tS'b'
tRp15
(I1
(I1
I1
tg6
I00
S'\xd8>\xae\xdf\xde\xf6_?'
tbag15
ag15
ag15
ag15
ag15
ag15
ag15
ag15
ag15
ag15
ag15
ag15
ag15
ag15
ag15
ag15
ag15
ag15
ag15
ag15
ag15
ag15
ag13
(g14
(I0
tS'b'
tRp16
(I1
(I1
I1
tg6
I00
S'\xe8L\x02\x99T\xd8\xf0>'
tbag16
ag16
ag16
ag16
ag16
ag16
ag16
ag16
ag16
ag16
ag16
asS'seed'
p17
I1019
sS't'
F1421.0266790390015
sS'init_random'
p18
I6
s.