(dp1
S'k'
I40
sS'bVals'
p2
(lp3
cnumpy.core.multiarray
scalar
p4
(cnumpy
dtype
p5
(S'f8'
I0
I1
tRp6
(I3
S'<'
NNNI-1
I-1
I0
tbS'[-0x\xd9\x9c\x00@'
tRp7
ag4
(g6
S'[-0x\xd9\x9c\x00@'
tRp8
ag4
(g6
S'[-0x\xd9\x9c\x00@'
tRp9
ag4
(g6
S'[-0x\xd9\x9c\x00@'
tRp10
ag4
(g6
S'[-0x\xd9\x9c\x00@'
tRp11
ag4
(g6
S'[-0x\xd9\x9c\x00@'
tRp12
acnumpy.core.multiarray
_reconstruct
p13
(cnumpy
ndarray
p14
(I0
tS'b'
tRp15
(I1
(I1
I1
tg6
I00
S'\x88\xf48/\x0b/s?'
tbag15
ag15
ag15
ag15
ag15
ag15
ag15
ag15
ag15
ag15
ag15
ag15
ag15
ag15
ag15
ag15
ag13
(g14
(I0
tS'b'
tRp16
(I1
(I1
I1
tg6
I00
S'\x8c\xb30\xcc\xf3V:?'
tbag16
ag16
ag16
ag16
ag16
ag16
ag16
ag16
ag16
ag16
ag16
ag16
ag16
ag16
ag16
ag16
ag13
(g14
(I0
tS'b'
tRp17
(I1
(I1
I1
tg6
I00
S'@\xb20\xcc\xf3V:?'
tbasS'seed'
p18
I1039
sS't'
F1481.3565120697021
sS'init_random'
p19
I6
s.