(dp1
S'k'
I40
sS'bVals'
p2
(lp3
cnumpy.core.multiarray
scalar
p4
(cnumpy
dtype
p5
(S'f8'
I0
I1
tRp6
(I3
S'<'
NNNI-1
I-1
I0
tbS'bA\x1b!l\xc2\xe3?'
tRp7
ag4
(g6
S'bA\x1b!l\xc2\xe3?'
tRp8
ag4
(g6
S'bA\x1b!l\xc2\xe3?'
tRp9
ag4
(g6
S'bA\x1b!l\xc2\xe3?'
tRp10
ag4
(g6
S'bA\x1b!l\xc2\xe3?'
tRp11
ag4
(g6
S'bA\x1b!l\xc2\xe3?'
tRp12
acnumpy.core.multiarray
_reconstruct
p13
(cnumpy
ndarray
p14
(I0
tS'b'
tRp15
(I1
(I1
tg6
I00
S'bA\x1b!l\xc2\xe3?'
tbag13
(g14
(I0
tS'b'
tRp16
(I1
(I1
I1
tg6
I00
S'|\x9dms\xd5\x13\x9d?'
tbag16
ag16
ag16
ag13
(g14
(I0
tS'b'
tRp17
(I1
(I1
I1
tg6
I00
S'\x18#\x12\xca\xebE\x90?'
tbag17
ag17
ag17
ag17
ag17
ag17
ag17
ag17
ag17
ag13
(g14
(I0
tS'b'
tRp18
(I1
(I1
I1
tg6
I00
S'|\xf0\xffc\xee\xd4I?'
tbag18
ag18
ag18
ag18
ag18
ag18
ag18
ag18
ag18
ag18
ag18
ag18
ag18
ag18
ag18
ag18
ag13
(g14
(I0
tS'b'
tRp19
(I1
(I1
I1
tg6
I00
S'\xe8L\x02\x99T\xd8\xf0>'
tbag19
ag19
asS'seed'
p20
I1021
sS't'
F1413.0654990673065
sS'init_random'
p21
I6
s.