(dp1
S'k'
I40
sS'bVals'
p2
(lp3
cnumpy.core.multiarray
scalar
p4
(cnumpy
dtype
p5
(S'f8'
I0
I1
tRp6
(I3
S'<'
NNNI-1
I-1
I0
tbS'^\x9a:\x0cD;\xcd?'
tRp7
ag4
(g6
S'^\x9a:\x0cD;\xcd?'
tRp8
ag4
(g6
S'^\x9a:\x0cD;\xcd?'
tRp9
ag4
(g6
S'^\x9a:\x0cD;\xcd?'
tRp10
ag4
(g6
S'^\x9a:\x0cD;\xcd?'
tRp11
ag4
(g6
S'^\x9a:\x0cD;\xcd?'
tRp12
acnumpy.core.multiarray
_reconstruct
p13
(cnumpy
ndarray
p14
(I0
tS'b'
tRp15
(I1
(I1
tg6
I00
S'^\x9a:\x0cD;\xcd?'
tbag15
ag15
ag13
(g14
(I0
tS'b'
tRp16
(I1
(I1
I1
tg6
I00
S'\xa0\x8d\xef\x00\xd5Zf?'
tbag16
ag16
ag16
ag16
ag16
ag16
ag16
ag16
ag16
ag16
ag16
ag13
(g14
(I0
tS'b'
tRp17
(I1
(I1
I1
tg6
I00
S'\xd8>\xae\xdf\xde\xf6_?'
tbag17
ag17
ag17
ag17
ag17
ag17
ag17
ag17
ag17
ag17
ag17
ag17
ag17
ag17
ag17
ag17
ag17
ag17
ag13
(g14
(I0
tS'b'
tRp18
(I1
(I1
I1
tg6
I00
S'\xc8H\x02\x99T\xd8\xf0>'
tbasS'seed'
p19
I1010
sS't'
F1434.290246963501
sS'init_random'
p20
I6
s.