(dp1
S'k'
I40
sS'bVals'
p2
(lp3
cnumpy.core.multiarray
scalar
p4
(cnumpy
dtype
p5
(S'f8'
I0
I1
tRp6
(I3
S'<'
NNNI-1
I-1
I0
tbS'2nWc\xae\xa7\xd5?'
tRp7
ag4
(g6
S'2nWc\xae\xa7\xd5?'
tRp8
ag4
(g6
S'2nWc\xae\xa7\xd5?'
tRp9
ag4
(g6
S'2nWc\xae\xa7\xd5?'
tRp10
ag4
(g6
S'2nWc\xae\xa7\xd5?'
tRp11
ag4
(g6
S'2nWc\xae\xa7\xd5?'
tRp12
acnumpy.core.multiarray
_reconstruct
p13
(cnumpy
ndarray
p14
(I0
tS'b'
tRp15
(I1
(I1
tg6
I00
S'2nWc\xae\xa7\xd5?'
tbag13
(g14
(I0
tS'b'
tRp16
(I1
(I1
I1
tg6
I00
S'\x8c\xb30\xcc\xf3V:?'
tbag16
ag16
ag16
ag16
ag16
ag16
ag16
ag16
ag16
ag16
ag16
ag16
ag16
ag16
ag16
ag16
ag16
ag16
ag16
ag16
ag16
ag16
ag16
ag16
ag16
ag16
ag16
ag16
ag16
ag16
ag16
ag16
ag16
asS'seed'
p17
I1020
sS't'
F1433.9270150661469
sS'init_random'
p18
I6
s.