(dp1
S'k'
I40
sS'bVals'
p2
(lp3
cnumpy.core.multiarray
scalar
p4
(cnumpy
dtype
p5
(S'f8'
I0
I1
tRp6
(I3
S'<'
NNNI-1
I-1
I0
tbS'p\x07\xcf){a\xaa?'
tRp7
ag4
(g6
S'p\x07\xcf){a\xaa?'
tRp8
ag4
(g6
S'p\x07\xcf){a\xaa?'
tRp9
ag4
(g6
S'p\x07\xcf){a\xaa?'
tRp10
ag4
(g6
S'p\x07\xcf){a\xaa?'
tRp11
ag4
(g6
S'p\x07\xcf){a\xaa?'
tRp12
acnumpy.core.multiarray
_reconstruct
p13
(cnumpy
ndarray
p14
(I0
tS'b'
tRp15
(I1
(I1
tg6
I00
S'p\x07\xcf){a\xaa?'
tbag13
(g14
(I0
tS'b'
tRp16
(I1
(I1
I1
tg6
I00
S'\xe8\xee\xce\xd4\xc1/\x9a?'
tbag16
ag13
(g14
(I0
tS'b'
tRp17
(I1
(I1
I1
tg6
I00
S'\xd0\x8d\xef\x00\xd5Zf?'
tbag17
ag17
ag17
ag17
ag17
ag17
ag17
ag13
(g14
(I0
tS'b'
tRp18
(I1
(I1
I1
tg6
I00
S'\xa0\x8d\xef\x00\xd5Zf?'
tbag18
ag18
ag18
ag18
ag18
ag18
ag18
ag13
(g14
(I0
tS'b'
tRp19
(I1
(I1
I1
tg6
I00
S'\xf0\xd1\x0fm\x8e\xf4"?'
tbag19
ag19
ag19
ag19
ag19
ag19
ag19
ag19
ag19
ag19
ag19
ag19
ag19
ag19
ag19
asS'seed'
p20
I1049
sS't'
F1296.3322870731354
sS'init_random'
p21
I6
s.