(dp1
S'bVals'
p2
cnumpy.core.multiarray
_reconstruct
p3
(cnumpy
ndarray
p4
(I0
tS'b'
tRp5
(I1
(I9
I1
tcnumpy
dtype
p6
(S'f8'
I0
I1
tRp7
(I3
S'<'
NNNI-1
I-1
I0
tbI00
S'/2kc\xa1>O@/2kc\xa1>O@/2kc\xa1>O@`\x9c^f"F6@`\x9c^f"F6@`\x9c^f"F6@`\x9c^f"F6@`\x9c^f"F6@`\x9c^f"F6@'
tbsS'seed'
p8
I1007
sS't'
F7.5465490818023682
s.