(dp1
S'bVals'
p2
cnumpy.core.multiarray
_reconstruct
p3
(cnumpy
ndarray
p4
(I0
tS'b'
tRp5
(I1
(I8
I1
tcnumpy
dtype
p6
(S'f8'
I0
I1
tRp7
(I3
S'<'
NNNI-1
I-1
I0
tbI00
S'R\x0e\xf45crb@R\x0e\xf45crb@R\x0e\xf45crb@R\x0e\xf45crb@R\x0e\xf45crb@R\x0e\xf45crb@R\x0e\xf45crb@R\x0e\xf45crb@'
tbsS'seed'
p8
I1043
sS't'
F3.595026969909668
s.