(dp1
S'bVals'
p2
cnumpy.core.multiarray
_reconstruct
p3
(cnumpy
ndarray
p4
(I0
tS'b'
tRp5
(I1
(I11
I1
tcnumpy
dtype
p6
(S'f8'
I0
I1
tRp7
(I3
S'<'
NNNI-1
I-1
I0
tbI00
S'\x9eU`\xd9c\xaa]@\xd7?^\x8fM3F@\xd7?^\x8fM3F@\xd7?^\x8fM3F@\xd7?^\x8fM3F@\xd7?^\x8fM3F@\xd7?^\x8fM3F@\xd7?^\x8fM3F@\xd7?^\x8fM3F@\xd7?^\x8fM3F@\xd7?^\x8fM3F@'
tbsS'seed'
p8
I1030
sS't'
F15.903284072875977
s.