(dp1
S'bVals'
p2
cnumpy.core.multiarray
_reconstruct
p3
(cnumpy
ndarray
p4
(I0
tS'b'
tRp5
(I1
(I9
I1
tcnumpy
dtype
p6
(S'f8'
I0
I1
tRp7
(I3
S'<'
NNNI-1
I-1
I0
tbI00
S'\xe7\xb3w\xde\xb2\x02{@gZ@\xb2=7_@gZ@\xb2=7_@gZ@\xb2=7_@gZ@\xb2=7_@$A\xa7\x93lSK@$A\xa7\x93lSK@$A\xa7\x93lSK@$A\xa7\x93lSK@'
tbsS'seed'
p8
I1023
sS't'
F6.6199030876159668
s.